; ModuleID = '5/189.c'
source_filename = "5/189.c"
target datalayout = "e-m:e-p270:32:32-p271:32:32-p272:64:64-i64:64-f80:128-n8:16:32:64-S128"
target triple = "x86_64-pc-linux-gnu"

@.str = private unnamed_addr constant [5 x i8] c"ATCG\00", align 1
@.str.1 = private unnamed_addr constant [5 x i8] c"%lf\0A\00", align 1
@.str.2 = private unnamed_addr constant [4 x i8] c"yes\00", align 1
@.str.3 = private unnamed_addr constant [3 x i8] c"no\00", align 1
@.str.4 = private unnamed_addr constant [6 x i8] c"error\00", align 1

; Function Attrs: noinline nounwind uwtable
define dso_local i32 @judge(i8* %0, i8* %1, double %2) #0 {
  %4 = alloca i32, align 4
  %5 = alloca i8*, align 8
  %6 = alloca i8*, align 8
  %7 = alloca double, align 8
  %8 = alloca i32, align 4
  %9 = alloca i32, align 4
  %10 = alloca i32, align 4
  %11 = alloca i32, align 4
  store i8* %0, i8** %5, align 8
  store i8* %1, i8** %6, align 8
  store double %2, double* %7, align 8
  %12 = load i8*, i8** %5, align 8
  %13 = call i64 @strlen(i8* %12) #3
  %14 = trunc i64 %13 to i32
  store i32 %14, i32* %8, align 4
  %15 = load i8*, i8** %6, align 8
  %16 = call i64 @strlen(i8* %15) #3
  %17 = trunc i64 %16 to i32
  store i32 %17, i32* %9, align 4
  store i32 0, i32* %11, align 4
  %18 = load i32, i32* %8, align 4
  %19 = load i32, i32* %9, align 4
  %20 = icmp ne i32 %18, %19
  br i1 %20, label %21, label %22

21:                                               ; preds = %3
  store i32 0, i32* %4, align 4
  br label %77

22:                                               ; preds = %3
  store i32 0, i32* %10, align 4
  br label %23

23:                                               ; preds = %64, %22
  %24 = load i32, i32* %10, align 4
  %25 = load i32, i32* %8, align 4
  %26 = icmp slt i32 %24, %25
  br i1 %26, label %27, label %67

27:                                               ; preds = %23
  %28 = load i8*, i8** %5, align 8
  %29 = load i32, i32* %10, align 4
  %30 = sext i32 %29 to i64
  %31 = getelementptr inbounds i8, i8* %28, i64 %30
  %32 = load i8, i8* %31, align 1
  %33 = sext i8 %32 to i32
  %34 = call i8* @strchr(i8* getelementptr inbounds ([5 x i8], [5 x i8]* @.str, i64 0, i64 0), i32 %33) #3
  %35 = icmp ne i8* %34, null
  br i1 %35, label %36, label %45

36:                                               ; preds = %27
  %37 = load i8*, i8** %6, align 8
  %38 = load i32, i32* %10, align 4
  %39 = sext i32 %38 to i64
  %40 = getelementptr inbounds i8, i8* %37, i64 %39
  %41 = load i8, i8* %40, align 1
  %42 = sext i8 %41 to i32
  %43 = call i8* @strchr(i8* getelementptr inbounds ([5 x i8], [5 x i8]* @.str, i64 0, i64 0), i32 %42) #3
  %44 = icmp ne i8* %43, null
  br i1 %44, label %46, label %45

45:                                               ; preds = %36, %27
  store i32 0, i32* %4, align 4
  br label %77

46:                                               ; preds = %36
  %47 = load i8*, i8** %5, align 8
  %48 = load i32, i32* %10, align 4
  %49 = sext i32 %48 to i64
  %50 = getelementptr inbounds i8, i8* %47, i64 %49
  %51 = load i8, i8* %50, align 1
  %52 = sext i8 %51 to i32
  %53 = load i8*, i8** %6, align 8
  %54 = load i32, i32* %10, align 4
  %55 = sext i32 %54 to i64
  %56 = getelementptr inbounds i8, i8* %53, i64 %55
  %57 = load i8, i8* %56, align 1
  %58 = sext i8 %57 to i32
  %59 = icmp eq i32 %52, %58
  br i1 %59, label %60, label %63

60:                                               ; preds = %46
  %61 = load i32, i32* %11, align 4
  %62 = add nsw i32 %61, 1
  store i32 %62, i32* %11, align 4
  br label %63

63:                                               ; preds = %60, %46
  br label %64

64:                                               ; preds = %63
  %65 = load i32, i32* %10, align 4
  %66 = add nsw i32 %65, 1
  store i32 %66, i32* %10, align 4
  br label %23

67:                                               ; preds = %23
  %68 = load i32, i32* %11, align 4
  %69 = sitofp i32 %68 to double
  %70 = load i32, i32* %8, align 4
  %71 = sitofp i32 %70 to double
  %72 = fdiv double %69, %71
  %73 = load double, double* %7, align 8
  %74 = fcmp ogt double %72, %73
  br i1 %74, label %75, label %76

75:                                               ; preds = %67
  store i32 1, i32* %4, align 4
  br label %77

76:                                               ; preds = %67
  store i32 -1, i32* %4, align 4
  br label %77

77:                                               ; preds = %76, %75, %45, %21
  %78 = load i32, i32* %4, align 4
  ret i32 %78
}

; Function Attrs: nounwind readonly
declare dso_local i64 @strlen(i8*) #1

; Function Attrs: nounwind readonly
declare dso_local i8* @strchr(i8*, i32) #1

; Function Attrs: noinline nounwind uwtable
define dso_local i32 @main() #0 {
  %1 = alloca i32, align 4
  %2 = alloca [600 x i8], align 16
  %3 = alloca [600 x i8], align 16
  %4 = alloca double, align 8
  %5 = alloca i32, align 4
  store i32 0, i32* %1, align 4
  %6 = call i32 (i8*, ...) @__isoc99_scanf(i8* getelementptr inbounds ([5 x i8], [5 x i8]* @.str.1, i64 0, i64 0), double* %4)
  %7 = getelementptr inbounds [600 x i8], [600 x i8]* %2, i64 0, i64 0
  %8 = call i32 (i8*, ...) bitcast (i32 (...)* @gets to i32 (i8*, ...)*)(i8* %7)
  %9 = getelementptr inbounds [600 x i8], [600 x i8]* %3, i64 0, i64 0
  %10 = call i32 (i8*, ...) bitcast (i32 (...)* @gets to i32 (i8*, ...)*)(i8* %9)
  %11 = getelementptr inbounds [600 x i8], [600 x i8]* %2, i64 0, i64 0
  %12 = getelementptr inbounds [600 x i8], [600 x i8]* %3, i64 0, i64 0
  %13 = load double, double* %4, align 8
  %14 = call i32 @judge(i8* %11, i8* %12, double %13)
  store i32 %14, i32* %5, align 4
  %15 = load i32, i32* %5, align 4
  %16 = icmp sgt i32 %15, 0
  br i1 %16, label %17, label %19

17:                                               ; preds = %0
  %18 = call i32 @puts(i8* getelementptr inbounds ([4 x i8], [4 x i8]* @.str.2, i64 0, i64 0))
  br label %27

19:                                               ; preds = %0
  %20 = load i32, i32* %5, align 4
  %21 = icmp slt i32 %20, 0
  br i1 %21, label %22, label %24

22:                                               ; preds = %19
  %23 = call i32 @puts(i8* getelementptr inbounds ([3 x i8], [3 x i8]* @.str.3, i64 0, i64 0))
  br label %26

24:                                               ; preds = %19
  %25 = call i32 @puts(i8* getelementptr inbounds ([6 x i8], [6 x i8]* @.str.4, i64 0, i64 0))
  br label %26

26:                                               ; preds = %24, %22
  br label %27

27:                                               ; preds = %26, %17
  ret i32 0
}

declare dso_local i32 @__isoc99_scanf(i8*, ...) #2

declare dso_local i32 @gets(...) #2

declare dso_local i32 @puts(i8*) #2


!llvm.module.flags = !{!0}
!llvm.ident = !{!1}

!0 = !{i32 1, !"wchar_size", i32 4}
!1 = !{!"clang version 10.0.0-4ubuntu1 "}
